target datalayout = "e-m:e-p270:32:32-p271:32:32-p272:64:64-i64:64-i128:128-f80:128-n8:16:32:64-S128"
target triple = "x86_64-pc-linux-gnu"

%union.ufmt_args = type { i64 }
%struct.u_scanf_spec_info = type { i32, i16, i16, i8, i8, i8, i8, i8, i8 }

; Function Attrs: inlinehint mustprogress nounwind uwtable
define internal noundef signext i8 @_ZL9U_FAILURE10UErrorCode(i32 noundef %0) #4 {
  %2 = alloca i32, align 4
  store i32 %0, ptr %2, align 4, !tbaa !54
  %3 = load i32, ptr %2, align 4, !tbaa !54
  %4 = icmp sgt i32 %3, 0
  %5 = zext i1 %4 to i8
  ret i8 %5
}

; Function Attrs: mustprogress uwtable
define internal noundef i32 @_ZL23u_scanf_skip_leading_wsP5UFILEDs(ptr noundef %0, i16 noundef zeroext %1) #0 {
  %3 = alloca ptr, align 8
  %4 = alloca i16, align 2
  %5 = alloca i16, align 2
  %6 = alloca i32, align 4
  %7 = alloca i8, align 1
  store ptr %0, ptr %3, align 8, !tbaa !3
  store i16 %1, ptr %4, align 2, !tbaa !14
  call void @llvm.lifetime.start.p0(i64 2, ptr %5) #5
  call void @llvm.lifetime.start.p0(i64 4, ptr %6) #5
  store i32 0, ptr %6, align 4, !tbaa !12
  call void @llvm.lifetime.start.p0(i64 1, ptr %7) #5
  br label %8

8:                                                ; preds = %28, %2
  %9 = load ptr, ptr %3, align 8, !tbaa !3
  %10 = call signext i8 @ufile_getch_77(ptr noundef %9, ptr noundef %5)
  store i8 %10, ptr %7, align 1, !tbaa !28
  %11 = sext i8 %10 to i32
  %12 = icmp eq i32 %11, 1
  br i1 %12, label %13, label %26

13:                                               ; preds = %8
  %14 = load i16, ptr %5, align 2, !tbaa !14
  %15 = zext i16 %14 to i32
  %16 = load i16, ptr %4, align 2, !tbaa !14
  %17 = zext i16 %16 to i32
  %18 = icmp eq i32 %15, %17
  br i1 %18, label %24, label %19

19:                                               ; preds = %13
  %20 = load i16, ptr %5, align 2, !tbaa !14
  %21 = zext i16 %20 to i32
  %22 = call signext i8 @u_isWhitespace_77(i32 noundef %21)
  %23 = icmp ne i8 %22, 0
  br label %24

24:                                               ; preds = %19, %13
  %25 = phi i1 [ true, %13 ], [ %23, %19 ]
  br label %26

26:                                               ; preds = %24, %8
  %27 = phi i1 [ false, %8 ], [ %25, %24 ]
  br i1 %27, label %28, label %31

28:                                               ; preds = %26
  %29 = load i32, ptr %6, align 4, !tbaa !12
  %30 = add nsw i32 %29, 1
  store i32 %30, ptr %6, align 4, !tbaa !12
  br label %8, !llvm.loop !82

31:                                               ; preds = %26
  %32 = load i8, ptr %7, align 1, !tbaa !28
  %33 = icmp ne i8 %32, 0
  br i1 %33, label %34, label %39

34:                                               ; preds = %31
  %35 = load i16, ptr %5, align 2, !tbaa !14
  %36 = zext i16 %35 to i32
  %37 = load ptr, ptr %3, align 8, !tbaa !3
  %38 = call i32 @u_fungetc_77(i32 noundef %36, ptr noundef %37)
  br label %39

39:                                               ; preds = %34, %31
  %40 = load i32, ptr %6, align 4, !tbaa !12
  call void @llvm.lifetime.end.p0(i64 1, ptr %7) #5
  call void @llvm.lifetime.end.p0(i64 4, ptr %6) #5
  call void @llvm.lifetime.end.p0(i64 2, ptr %5) #5
  ret i32 %40
}

; Function Attrs: mustprogress uwtable
define internal noundef i32 @_ZL22u_scanf_string_handlerP5UFILEP17u_scanf_spec_infoP9ufmt_argsPKDsPiS7_(ptr noundef %0, ptr noundef %1, ptr noundef %2, ptr noundef %3, ptr noundef %4, ptr noundef %5) #0 {
  %7 = alloca i32, align 4
  %8 = alloca ptr, align 8
  %9 = alloca ptr, align 8
  %10 = alloca ptr, align 8
  %11 = alloca ptr, align 8
  %12 = alloca ptr, align 8
  %13 = alloca ptr, align 8
  %14 = alloca ptr, align 8
  %15 = alloca ptr, align 8
  %16 = alloca ptr, align 8
  %17 = alloca ptr, align 8
  %18 = alloca ptr, align 8
  %19 = alloca i32, align 4
  %20 = alloca i32, align 4
  %21 = alloca i32, align 4
  %22 = alloca i16, align 2
  %23 = alloca i8, align 1
  %24 = alloca i32, align 4
  store ptr %0, ptr %8, align 8, !tbaa !3
  store ptr %1, ptr %9, align 8, !tbaa !35
  store ptr %2, ptr %10, align 8, !tbaa !50
  store ptr %3, ptr %11, align 8, !tbaa !8
  store ptr %4, ptr %12, align 8, !tbaa !52
  store ptr %5, ptr %13, align 8, !tbaa !52
  call void @llvm.lifetime.start.p0(i64 8, ptr %14) #5
  call void @llvm.lifetime.start.p0(i64 8, ptr %15) #5
  call void @llvm.lifetime.start.p0(i64 8, ptr %16) #5
  %25 = load ptr, ptr %10, align 8, !tbaa !50
  %26 = getelementptr inbounds %union.ufmt_args, ptr %25, i64 0
  %27 = load ptr, ptr %26, align 8, !tbaa !28
  store ptr %27, ptr %16, align 8, !tbaa !79
  call void @llvm.lifetime.start.p0(i64 8, ptr %17) #5
  %28 = load ptr, ptr %16, align 8, !tbaa !79
  store ptr %28, ptr %17, align 8, !tbaa !79
  call void @llvm.lifetime.start.p0(i64 8, ptr %18) #5
  call void @llvm.lifetime.start.p0(i64 4, ptr %19) #5
  store i32 0, ptr %19, align 4, !tbaa !54
  call void @llvm.lifetime.start.p0(i64 4, ptr %20) #5
  call void @llvm.lifetime.start.p0(i64 4, ptr %21) #5
  store i32 0, ptr %21, align 4, !tbaa !12
  call void @llvm.lifetime.start.p0(i64 2, ptr %22) #5
  call void @llvm.lifetime.start.p0(i64 1, ptr %23) #5
  store i8 0, ptr %23, align 1, !tbaa !28
  %29 = load ptr, ptr %9, align 8, !tbaa !35
  %30 = getelementptr inbounds nuw %struct.u_scanf_spec_info, ptr %29, i32 0, i32 8
  %31 = load i8, ptr %30, align 1, !tbaa !46
  %32 = icmp ne i8 %31, 0
  br i1 %32, label %33, label %39

33:                                               ; preds = %6
  %34 = load ptr, ptr %8, align 8, !tbaa !3
  %35 = load ptr, ptr %9, align 8, !tbaa !35
  %36 = getelementptr inbounds nuw %struct.u_scanf_spec_info, ptr %35, i32 0, i32 2
  %37 = load i16, ptr %36, align 2, !tbaa !40
  %38 = call noundef i32 @_ZL23u_scanf_skip_leading_wsP5UFILEDs(ptr noundef %34, i16 noundef zeroext %37)
  store i32 %38, ptr %21, align 4, !tbaa !12
  br label %39

39:                                               ; preds = %33, %6
  store i32 0, ptr %20, align 4, !tbaa !12
  %40 = call ptr @u_getDefaultConverter_77(ptr noundef %19)
  store ptr %40, ptr %15, align 8, !tbaa !80
  %41 = load i32, ptr %19, align 4, !tbaa !54
  %42 = call noundef signext i8 @_ZL9U_FAILURE10UErrorCode(i32 noundef %41)
  %43 = icmp ne i8 %42, 0
  br i1 %43, label %44, label %45

44:                                               ; preds = %39
  store i32 -1, ptr %7, align 4
  store i32 1, ptr %24, align 4
  br label %173

45:                                               ; preds = %39
  br label %46

46:                                               ; preds = %126, %45
  %47 = load ptr, ptr %9, align 8, !tbaa !35
  %48 = getelementptr inbounds nuw %struct.u_scanf_spec_info, ptr %47, i32 0, i32 0
  %49 = load i32, ptr %48, align 4, !tbaa !38
  %50 = icmp eq i32 %49, -1
  br i1 %50, label %57, label %51

51:                                               ; preds = %46
  %52 = load i32, ptr %20, align 4, !tbaa !12
  %53 = load ptr, ptr %9, align 8, !tbaa !35
  %54 = getelementptr inbounds nuw %struct.u_scanf_spec_info, ptr %53, i32 0, i32 0
  %55 = load i32, ptr %54, align 4, !tbaa !38
  %56 = icmp slt i32 %52, %55
  br i1 %56, label %57, label %85

57:                                               ; preds = %51, %46
  %58 = load ptr, ptr %8, align 8, !tbaa !3
  %59 = call signext i8 @ufile_getch_77(ptr noundef %58, ptr noundef %22)
  store i8 %59, ptr %23, align 1, !tbaa !28
  %60 = sext i8 %59 to i32
  %61 = icmp eq i32 %60, 1
  br i1 %61, label %62, label %85

62:                                               ; preds = %57
  %63 = load ptr, ptr %9, align 8, !tbaa !35
  %64 = getelementptr inbounds nuw %struct.u_scanf_spec_info, ptr %63, i32 0, i32 8
  %65 = load i8, ptr %64, align 1, !tbaa !46
  %66 = icmp ne i8 %65, 0
  br i1 %66, label %67, label %83

67:                                               ; preds = %62
  %68 = load i16, ptr %22, align 2, !tbaa !14
  %69 = zext i16 %68 to i32
  %70 = load ptr, ptr %9, align 8, !tbaa !35
  %71 = getelementptr inbounds nuw %struct.u_scanf_spec_info, ptr %70, i32 0, i32 2
  %72 = load i16, ptr %71, align 2, !tbaa !40
  %73 = zext i16 %72 to i32
  %74 = icmp ne i32 %69, %73
  br i1 %74, label %75, label %81

75:                                               ; preds = %67
  %76 = load i16, ptr %22, align 2, !tbaa !14
  %77 = zext i16 %76 to i32
  %78 = call signext i8 @u_isWhitespace_77(i32 noundef %77)
  %79 = icmp ne i8 %78, 0
  %80 = xor i1 %79, true
  br label %81

81:                                               ; preds = %75, %67
  %82 = phi i1 [ false, %67 ], [ %80, %75 ]
  br label %83

83:                                               ; preds = %81, %62
  %84 = phi i1 [ true, %62 ], [ %82, %81 ]
  br label %85

85:                                               ; preds = %83, %57, %51
  %86 = phi i1 [ false, %57 ], [ false, %51 ], [ %84, %83 ]
  br i1 %86, label %87, label %129

87:                                               ; preds = %85
  %88 = load ptr, ptr %9, align 8, !tbaa !35
  %89 = getelementptr inbounds nuw %struct.u_scanf_spec_info, ptr %88, i32 0, i32 3
  %90 = load i8, ptr %89, align 4, !tbaa !41
  %91 = icmp ne i8 %90, 0
  br i1 %91, label %126, label %92

92:                                               ; preds = %87
  store ptr %22, ptr %14, align 8, !tbaa !8
  %93 = load ptr, ptr %9, align 8, !tbaa !35
  %94 = getelementptr inbounds nuw %struct.u_scanf_spec_info, ptr %93, i32 0, i32 0
  %95 = load i32, ptr %94, align 4, !tbaa !38
  %96 = icmp sgt i32 %95, 0
  br i1 %96, label %97, label %108

97:                                               ; preds = %92
  %98 = load ptr, ptr %17, align 8, !tbaa !79
  %99 = load ptr, ptr %9, align 8, !tbaa !35
  %100 = getelementptr inbounds nuw %struct.u_scanf_spec_info, ptr %99, i32 0, i32 0
  %101 = load i32, ptr %100, align 4, !tbaa !38
  %102 = sext i32 %101 to i64
  %103 = getelementptr inbounds i8, ptr %98, i64 %102
  %104 = load i32, ptr %20, align 4, !tbaa !12
  %105 = sext i32 %104 to i64
  %106 = sub i64 0, %105
  %107 = getelementptr inbounds i8, ptr %103, i64 %106
  store ptr %107, ptr %18, align 8, !tbaa !79
  br label %115

108:                                              ; preds = %92
  %109 = load ptr, ptr %17, align 8, !tbaa !79
  %110 = load ptr, ptr %15, align 8, !tbaa !80
  %111 = call signext i8 @ucnv_getMaxCharSize_77(ptr noundef %110)
  %112 = sext i8 %111 to i32
  %113 = sext i32 %112 to i64
  %114 = getelementptr inbounds i8, ptr %109, i64 %113
  store ptr %114, ptr %18, align 8, !tbaa !79
  br label %115

115:                                              ; preds = %108, %97
  %116 = load ptr, ptr %15, align 8, !tbaa !80
  %117 = load ptr, ptr %18, align 8, !tbaa !79
  %118 = load ptr, ptr %14, align 8, !tbaa !8
  %119 = getelementptr inbounds i16, ptr %118, i64 1
  call void @ucnv_fromUnicode_77(ptr noundef %116, ptr noundef %17, ptr noundef %117, ptr noundef %14, ptr noundef %119, ptr noundef null, i8 noundef signext 1, ptr noundef %19)
  %120 = load i32, ptr %19, align 4, !tbaa !54
  %121 = call noundef signext i8 @_ZL9U_FAILURE10UErrorCode(i32 noundef %120)
  %122 = icmp ne i8 %121, 0
  br i1 %122, label %123, label %125

123:                                              ; preds = %115
  %124 = load ptr, ptr %15, align 8, !tbaa !80
  call void @u_releaseDefaultConverter_77(ptr noundef %124)
  store i32 -1, ptr %7, align 4
  store i32 1, ptr %24, align 4
  br label %173

125:                                              ; preds = %115
  br label %126

126:                                              ; preds = %125, %87
  %127 = load i32, ptr %20, align 4, !tbaa !12
  %128 = add nsw i32 %127, 1
  store i32 %128, ptr %20, align 4, !tbaa !12
  br label %46, !llvm.loop !81

129:                                              ; preds = %85
  %130 = load ptr, ptr %9, align 8, !tbaa !35
  %131 = getelementptr inbounds nuw %struct.u_scanf_spec_info, ptr %130, i32 0, i32 3
  %132 = load i8, ptr %131, align 4, !tbaa !41
  %133 = icmp ne i8 %132, 0
  br i1 %133, label %161, label %134

134:                                              ; preds = %129
  %135 = load ptr, ptr %9, align 8, !tbaa !35
  %136 = getelementptr inbounds nuw %struct.u_scanf_spec_info, ptr %135, i32 0, i32 0
  %137 = load i32, ptr %136, align 4, !tbaa !38
  %138 = icmp eq i32 %137, -1
  br i1 %138, label %145, label %139

139:                                              ; preds = %134
  %140 = load i32, ptr %20, align 4, !tbaa !12
  %141 = load ptr, ptr %9, align 8, !tbaa !35
  %142 = getelementptr inbounds nuw %struct.u_scanf_spec_info, ptr %141, i32 0, i32 0
  %143 = load i32, ptr %142, align 4, !tbaa !38
  %144 = icmp slt i32 %140, %143
  br i1 %144, label %145, label %153

145:                                              ; preds = %139, %134
  %146 = load i8, ptr %23, align 1, !tbaa !28
  %147 = icmp ne i8 %146, 0
  br i1 %147, label %148, label %153

148:                                              ; preds = %145
  %149 = load i16, ptr %22, align 2, !tbaa !14
  %150 = zext i16 %149 to i32
  %151 = load ptr, ptr %8, align 8, !tbaa !3
  %152 = call i32 @u_fungetc_77(i32 noundef %150, ptr noundef %151)
  br label %153

153:                                              ; preds = %148, %145, %139
  %154 = load ptr, ptr %9, align 8, !tbaa !35
  %155 = getelementptr inbounds nuw %struct.u_scanf_spec_info, ptr %154, i32 0, i32 8
  %156 = load i8, ptr %155, align 1, !tbaa !46
  %157 = icmp ne i8 %156, 0
  br i1 %157, label %158, label %160

158:                                              ; preds = %153
  %159 = load ptr, ptr %17, align 8, !tbaa !79
  store i8 0, ptr %159, align 1, !tbaa !28
  br label %160

160:                                              ; preds = %158, %153
  br label %161

161:                                              ; preds = %160, %129
  %162 = load ptr, ptr %15, align 8, !tbaa !80
  call void @u_releaseDefaultConverter_77(ptr noundef %162)
  %163 = load ptr, ptr %9, align 8, !tbaa !35
  %164 = getelementptr inbounds nuw %struct.u_scanf_spec_info, ptr %163, i32 0, i32 3
  %165 = load i8, ptr %164, align 4, !tbaa !41
  %166 = icmp ne i8 %165, 0
  %167 = xor i1 %166, true
  %168 = zext i1 %167 to i32
  %169 = load ptr, ptr %13, align 8, !tbaa !52
  store i32 %168, ptr %169, align 4, !tbaa !12
  %170 = load i32, ptr %20, align 4, !tbaa !12
  %171 = load i32, ptr %21, align 4, !tbaa !12
  %172 = add nsw i32 %170, %171
  store i32 %172, ptr %7, align 4
  store i32 1, ptr %24, align 4
  br label %173

173:                                              ; preds = %161, %123, %44
  call void @llvm.lifetime.end.p0(i64 1, ptr %23) #5
  call void @llvm.lifetime.end.p0(i64 2, ptr %22) #5
  call void @llvm.lifetime.end.p0(i64 4, ptr %21) #5
  call void @llvm.lifetime.end.p0(i64 4, ptr %20) #5
  call void @llvm.lifetime.end.p0(i64 4, ptr %19) #5
  call void @llvm.lifetime.end.p0(i64 8, ptr %18) #5
  call void @llvm.lifetime.end.p0(i64 8, ptr %17) #5
  call void @llvm.lifetime.end.p0(i64 8, ptr %16) #5
  call void @llvm.lifetime.end.p0(i64 8, ptr %15) #5
  call void @llvm.lifetime.end.p0(i64 8, ptr %14) #5
  %174 = load i32, ptr %7, align 4
  ret i32 %174
}