; Function Attrs: mustprogress uwtable
define internal noundef i32 @_ZL22u_scanf_string_handlerP5UFILEP17u_scanf_spec_infoP9ufmt_argsPKDsPiS7_(ptr noundef %0, ptr noundef readonly captures(none) %1, ptr noundef readonly captures(none) %2, ptr readnone captures(none) %3, ptr readnone captures(none) %4, ptr noundef writeonly captures(none) %5) #0 {
  %7 = alloca i16, align 2
  %8 = alloca ptr, align 8
  %9 = alloca ptr, align 8
  %10 = alloca i32, align 4
  %11 = alloca i16, align 2
  call void @llvm.lifetime.start.p0(i64 8, ptr nonnull %8) #6
  %12 = load ptr, ptr %2, align 8, !tbaa !33
  call void @llvm.lifetime.start.p0(i64 8, ptr nonnull %9) #6
  store ptr %12, ptr %9, align 8, !tbaa !61
  call void @llvm.lifetime.start.p0(i64 4, ptr nonnull %10) #6
  store i32 0, ptr %10, align 4, !tbaa !36
  call void @llvm.lifetime.start.p0(i64 2, ptr nonnull %11) #6
  %13 = getelementptr inbounds nuw i8, ptr %1, i64 13
  %14 = load i8, ptr %13, align 1, !tbaa !17
  %.not = icmp eq i8 %14, 0
  br i1 %.not, label %30, label %15

15:                                               ; preds = %6
  %16 = getelementptr inbounds nuw i8, ptr %1, i64 6
  %17 = load i16, ptr %16, align 2, !tbaa !16
  call void @llvm.lifetime.start.p0(i64 2, ptr nonnull %7) #6
  br label %18

18:                                               ; preds = %.critedge2.i, %15
  %.0.i = phi i32 [ 0, %15 ], [ %26, %.critedge2.i ]
  %19 = call signext i8 @ufile_getch_77(ptr noundef %0, ptr noundef nonnull %7)
  switch i8 %19, label %.critedge.i [
    i8 1, label %20
    i8 0, label %_ZL23u_scanf_skip_leading_wsP5UFILEDs.exit
  ]

20:                                               ; preds = %18
  %21 = load i16, ptr %7, align 2, !tbaa !7
  %22 = icmp eq i16 %21, %17
  br i1 %22, label %.critedge2.i, label %23

23:                                               ; preds = %20
  %24 = zext i16 %21 to i32
  %25 = call signext i8 @u_isWhitespace_77(i32 noundef %24)
  %.not.i = icmp eq i8 %25, 0
  br i1 %.not.i, label %.critedge.i, label %.critedge2.i

.critedge2.i:                                     ; preds = %23, %20
  %26 = add nuw nsw i32 %.0.i, 1
  br label %18, !llvm.loop !38

.critedge.i:                                      ; preds = %23, %18
  %27 = load i16, ptr %7, align 2, !tbaa !7
  %28 = zext i16 %27 to i32
  %29 = call i32 @u_fungetc_77(i32 noundef %28, ptr noundef %0)
  br label %_ZL23u_scanf_skip_leading_wsP5UFILEDs.exit

_ZL23u_scanf_skip_leading_wsP5UFILEDs.exit:       ; preds = %18, %.critedge.i
  call void @llvm.lifetime.end.p0(i64 2, ptr nonnull %7) #6
  br label %30

30:                                               ; preds = %_ZL23u_scanf_skip_leading_wsP5UFILEDs.exit, %6
  %.036 = phi i32 [ %.0.i, %_ZL23u_scanf_skip_leading_wsP5UFILEDs.exit ], [ 0, %6 ]
  %31 = call ptr @u_getDefaultConverter_77(ptr noundef nonnull %10)
  %32 = load i32, ptr %10, align 4, !tbaa !36
  %33 = icmp slt i32 %32, 1
  br i1 %33, label %.preheader, label %98

.preheader:                                       ; preds = %30
  %34 = load i32, ptr %1, align 4, !tbaa !14
  %35 = icmp eq i32 %34, -1
  %36 = icmp sgt i32 %34, 0
  %or.cond5359 = or i1 %35, %36
  br i1 %or.cond5359, label %.lr.ph, label %.critedge

.lr.ph:                                           ; preds = %.preheader
  %37 = getelementptr inbounds nuw i8, ptr %1, i64 6
  %38 = getelementptr inbounds nuw i8, ptr %1, i64 8
  br label %39

39:                                               ; preds = %.lr.ph, %70
  %indvars.iv = phi i64 [ 0, %.lr.ph ], [ %indvars.iv.next, %70 ]
  %40 = call signext i8 @ufile_getch_77(ptr noundef %0, ptr noundef nonnull %11)
  %41 = icmp eq i8 %40, 1
  br i1 %41, label %42, label %.critedge.loopexit.split.loop.exit77

42:                                               ; preds = %39
  %43 = load i8, ptr %13, align 1, !tbaa !17
  %.not45 = icmp eq i8 %43, 0
  br i1 %.not45, label %.critedge2, label %44

44:                                               ; preds = %42
  %45 = load i16, ptr %11, align 2, !tbaa !7
  %46 = load i16, ptr %37, align 2, !tbaa !16
  %.not46 = icmp eq i16 %45, %46
  br i1 %.not46, label %.critedge.loopexit.split.loop.exit80, label %47

47:                                               ; preds = %44
  %48 = zext i16 %45 to i32
  %49 = call signext i8 @u_isWhitespace_77(i32 noundef %48)
  %.not47 = icmp eq i8 %49, 0
  br i1 %.not47, label %.critedge2, label %.critedge.loopexit.split.loop.exit83

.critedge2:                                       ; preds = %42, %47
  %50 = load i8, ptr %38, align 4, !tbaa !19
  %.not51 = icmp eq i8 %50, 0
  br i1 %.not51, label %51, label %70

51:                                               ; preds = %.critedge2
  store ptr %11, ptr %8, align 8, !tbaa !62
  %52 = load i32, ptr %1, align 4, !tbaa !14
  %53 = icmp sgt i32 %52, 0
  %54 = load ptr, ptr %9, align 8, !tbaa !61
  br i1 %53, label %55, label %60

55:                                               ; preds = %51
  %56 = zext nneg i32 %52 to i64
  %57 = getelementptr inbounds nuw i8, ptr %54, i64 %56
  %58 = sub nsw i64 0, %indvars.iv
  %59 = getelementptr inbounds i8, ptr %57, i64 %58
  br label %64

60:                                               ; preds = %51
  %61 = call signext i8 @ucnv_getMaxCharSize_77(ptr noundef %31)
  %62 = sext i8 %61 to i64
  %63 = getelementptr inbounds i8, ptr %54, i64 %62
  %.pre = load ptr, ptr %8, align 8, !tbaa !62
  br label %64

64:                                               ; preds = %60, %55
  %65 = phi ptr [ %11, %55 ], [ %.pre, %60 ]
  %.038 = phi ptr [ %59, %55 ], [ %63, %60 ]
  %66 = getelementptr inbounds nuw i8, ptr %65, i64 2
  call void @ucnv_fromUnicode_77(ptr noundef %31, ptr noundef nonnull %9, ptr noundef %.038, ptr noundef nonnull %8, ptr noundef nonnull %66, ptr noundef null, i8 noundef signext 1, ptr noundef nonnull %10)
  %67 = load i32, ptr %10, align 4, !tbaa !36
  %68 = icmp slt i32 %67, 1
  br i1 %68, label %70, label %69

69:                                               ; preds = %64
  call void @u_releaseDefaultConverter_77(ptr noundef %31)
  br label %98

70:                                               ; preds = %64, %.critedge2
  %indvars.iv.next = add nuw nsw i64 %indvars.iv, 1
  %indvars = trunc i64 %indvars.iv.next to i32
  %71 = load i32, ptr %1, align 4, !tbaa !14
  %72 = icmp eq i32 %71, -1
  %73 = icmp sgt i32 %71, %indvars
  %or.cond53 = select i1 %72, i1 true, i1 %73
  br i1 %or.cond53, label %39, label %.critedge, !llvm.loop !63

.critedge.loopexit.split.loop.exit77:             ; preds = %39
  %74 = trunc nuw nsw i64 %indvars.iv to i32
  br label %.critedge

.critedge.loopexit.split.loop.exit80:             ; preds = %44
  %75 = trunc nuw nsw i64 %indvars.iv to i32
  br label %.critedge

.critedge.loopexit.split.loop.exit83:             ; preds = %47
  %76 = trunc nuw nsw i64 %indvars.iv to i32
  br label %.critedge

.critedge:                                        ; preds = %70, %.critedge.loopexit.split.loop.exit77, %.critedge.loopexit.split.loop.exit80, %.critedge.loopexit.split.loop.exit83, %.preheader
  %.037.lcssa = phi i32 [ 0, %.preheader ], [ %74, %.critedge.loopexit.split.loop.exit77 ], [ %75, %.critedge.loopexit.split.loop.exit80 ], [ %76, %.critedge.loopexit.split.loop.exit83 ], [ %indvars, %70 ]
  %.1 = phi i8 [ 0, %.preheader ], [ %40, %.critedge.loopexit.split.loop.exit77 ], [ 1, %.critedge.loopexit.split.loop.exit80 ], [ 1, %.critedge.loopexit.split.loop.exit83 ], [ 1, %70 ]
  %77 = getelementptr inbounds nuw i8, ptr %1, i64 8
  %78 = load i8, ptr %77, align 4, !tbaa !19
  %.not48 = icmp eq i8 %78, 0
  br i1 %.not48, label %79, label %94

79:                                               ; preds = %.critedge
  %80 = load i32, ptr %1, align 4, !tbaa !14
  %81 = icmp eq i32 %80, -1
  br i1 %81, label %85, label %82

82:                                               ; preds = %79
  %83 = icmp slt i32 %.037.lcssa, %80
  %84 = icmp ne i8 %.1, 0
  %or.cond = and i1 %84, %83
  br i1 %or.cond, label %86, label %90

85:                                               ; preds = %79
  %.old3.not = icmp eq i8 %.1, 0
  br i1 %.old3.not, label %90, label %86

86:                                               ; preds = %82, %85
  %87 = load i16, ptr %11, align 2, !tbaa !7
  %88 = zext i16 %87 to i32
  %89 = call i32 @u_fungetc_77(i32 noundef %88, ptr noundef %0)
  br label %90

90:                                               ; preds = %86, %85, %82
  %91 = load i8, ptr %13, align 1, !tbaa !17
  %.not49 = icmp eq i8 %91, 0
  br i1 %.not49, label %94, label %92

92:                                               ; preds = %90
  %93 = load ptr, ptr %9, align 8, !tbaa !61
  store i8 0, ptr %93, align 1, !tbaa !33
  br label %94

94:                                               ; preds = %90, %92, %.critedge
  call void @u_releaseDefaultConverter_77(ptr noundef %31)
  %95 = load i8, ptr %77, align 4, !tbaa !19
  %.not50 = icmp eq i8 %95, 0
  %96 = zext i1 %.not50 to i32
  store i32 %96, ptr %5, align 4, !tbaa !3
  %97 = add nuw nsw i32 %.037.lcssa, %.036
  br label %98

98:                                               ; preds = %30, %94, %69
  %.039 = phi i32 [ -1, %69 ], [ %97, %94 ], [ -1, %30 ]
  call void @llvm.lifetime.end.p0(i64 2, ptr nonnull %11) #6
  call void @llvm.lifetime.end.p0(i64 4, ptr nonnull %10) #6
  call void @llvm.lifetime.end.p0(i64 8, ptr nonnull %9) #6
  call void @llvm.lifetime.end.p0(i64 8, ptr nonnull %8) #6
  ret i32 %.039
}